; Function Attrs: mustprogress uwtable
define void @_ZN3gmx10PairSearch15setNonLocalGridEiiRKNS_14GridDimensionsENS_8ArrayRefIKSt4pairIiiEEENS4_IKiEENS4_IKNS_11BasicVectorIfEEEEPNS_16nbnxn_atomdata_tE(ptr noundef nonnull align 8 dereferenceable(336) %0, i32 noundef %1, i32 noundef %2, ptr noundef nonnull align 4 dereferenceable(68) %3, ptr %4, ptr %5, ptr noundef readonly byval(%"class.gmx::ArrayRef.56") align 8 captures(none) %6, ptr noundef readonly byval(%"class.gmx::ArrayRef.59") align 8 captures(none) %7, ptr noundef %8) local_unnamed_addr #4 align 2 {
  %10 = alloca %"class.gmx::ArrayRef.56", align 8
  %11 = alloca %"class.gmx::ArrayRef.59", align 8
  %12 = ptrtoint ptr %5 to i64
  %13 = ptrtoint ptr %4 to i64
  %14 = sub i64 %12, %13
  %15 = getelementptr inbounds nuw i8, ptr %4, i64 %14
  %16 = load ptr, ptr %6, align 8, !tbaa !100
  store ptr %16, ptr %10, align 8, !tbaa !100
  %17 = getelementptr inbounds nuw i8, ptr %10, i64 8
  %18 = getelementptr inbounds nuw i8, ptr %6, i64 8
  %19 = load ptr, ptr %18, align 8, !tbaa !100
  %20 = ptrtoint ptr %19 to i64
  %21 = ptrtoint ptr %16 to i64
  %22 = sub i64 %20, %21
  %23 = getelementptr inbounds nuw i8, ptr %16, i64 %22
  store ptr %23, ptr %17, align 8, !tbaa !100
  %24 = load ptr, ptr %7, align 8, !tbaa !102
  store ptr %24, ptr %11, align 8, !tbaa !102
  %25 = getelementptr inbounds nuw i8, ptr %11, i64 8
  %26 = getelementptr inbounds nuw i8, ptr %7, i64 8
  %27 = load ptr, ptr %26, align 8, !tbaa !102
  %28 = ptrtoint ptr %27 to i64
  %29 = ptrtoint ptr %24 to i64
  %30 = sub i64 %28, %29
  %31 = getelementptr inbounds nuw i8, ptr %24, i64 %30
  store ptr %31, ptr %25, align 8, !tbaa !102
  tail call void @_ZN3gmx7GridSet15setNonLocalGridEiiRKNS_14GridDimensionsENS_8ArrayRefIKSt4pairIiiEEENS4_IKiEENS4_IKNS_11BasicVectorIfEEEEPNS_16nbnxn_atomdata_tE(ptr noundef nonnull align 8 dereferenceable(232) %0, i32 noundef %1, i32 noundef %2, ptr noundef nonnull align 4 dereferenceable(68) %3, ptr %4, ptr %15, ptr noundef nonnull byval(%"class.gmx::ArrayRef.56") align 8 %10, ptr noundef nonnull byval(%"class.gmx::ArrayRef.59") align 8 %11, ptr noundef %8)
  ret void
}